target datalayout = "e-m:e-p270:32:32-p271:32:32-p272:64:64-i64:64-i128:128-f80:128-n8:16:32:64-S128"
target triple = "x86_64-pc-linux-gnu"

%"class.Yosys::Functional::Node" = type { %"struct.Yosys::ComputeGraph<Yosys::Functional::IR::NodeData, Yosys::Functional::IR::Attr, Yosys::RTLIL::IdString, std::tuple<Yosys::RTLIL::IdString, Yosys::RTLIL::IdString, bool>>::BaseRef" }
%"struct.Yosys::ComputeGraph<Yosys::Functional::IR::NodeData, Yosys::Functional::IR::Attr, Yosys::RTLIL::IdString, std::tuple<Yosys::RTLIL::IdString, Yosys::RTLIL::IdString, bool>>::BaseRef" = type <{ ptr, i32, [4 x i8] }>

@.str.158 = private unnamed_addr constant [21 x i8] c"{}.sign_extend<{}>()\00", align 1

; Function Attrs: mustprogress uwtable
define internal void @_ZN12_GLOBAL__N_115CxxPrintVisitorIZNS_9CxxModule14write_eval_defERN5Yosys10Functional6WriterEEUlNS3_4NodeEE_E11sign_extendES6_S6_i(ptr noundef nonnull align 8 dereferenceable(40) %0, ptr %1, i32 %2, ptr %3, i32 %4, i32 noundef %5) unnamed_addr #4 align 2 {
  %7 = alloca %"class.Yosys::Functional::Node", align 8
  %8 = alloca %"class.Yosys::Functional::Node", align 8
  %9 = alloca ptr, align 8
  %10 = alloca i32, align 4
  %11 = getelementptr inbounds nuw { ptr, i32 }, ptr %7, i32 0, i32 0
  store ptr %1, ptr %11, align 8
  %12 = getelementptr inbounds nuw { ptr, i32 }, ptr %7, i32 0, i32 1
  store i32 %2, ptr %12, align 8
  %13 = getelementptr inbounds nuw { ptr, i32 }, ptr %8, i32 0, i32 0
  store ptr %3, ptr %13, align 8
  %14 = getelementptr inbounds nuw { ptr, i32 }, ptr %8, i32 0, i32 1
  store i32 %4, ptr %14, align 8
  store ptr %0, ptr %9, align 8, !tbaa !807
  store i32 %5, ptr %10, align 4, !tbaa !127
  %15 = load ptr, ptr %9, align 8
  call void @_ZN12_GLOBAL__N_115CxxPrintVisitorIZNS_9CxxModule14write_eval_defERN5Yosys10Functional6WriterEEUlNS3_4NodeEE_E5printIJRS6_RiEEEvPKcDpOT_(ptr noundef nonnull align 8 dereferenceable(40) %15, ptr noundef @.str.158, ptr noundef nonnull align 8 dereferenceable(16) %8, ptr noundef nonnull align 4 dereferenceable(4) %10)
  ret void
}